; Function Attrs: mustprogress uwtable
define hidden void @_ZN6google4base8internal15SetExitOnDFatalEb(i1 noundef zeroext %0) local_unnamed_addr #0 personality ptr @__gxx_personality_v0 {
  %2 = tail call noundef i32 @pthread_mutex_lock(ptr noundef nonnull align 8 dereferenceable(40) @_ZN6googleL9log_mutexE) #49
  %.not.i.i = icmp eq i32 %2, 0
  br i1 %.not.i.i, label %_ZNSt10lock_guardISt5mutexEC2ERS0_.exit, label %3

3:                                                ; preds = %1
  tail call void @_ZSt20__throw_system_errori(i32 noundef %2) #52
  unreachable

_ZNSt10lock_guardISt5mutexEC2ERS0_.exit:          ; preds = %1
  %4 = zext i1 %0 to i8
  store i8 %4, ptr @_ZN6googleL14exit_on_dfatalE, align 1, !tbaa !92
  %5 = tail call noundef i32 @pthread_mutex_unlock(ptr noundef nonnull align 8 dereferenceable(40) @_ZN6googleL9log_mutexE) #49
  ret void
}